target datalayout = "e-m:e-p270:32:32-p271:32:32-p272:64:64-i64:64-i128:128-f80:128-n8:16:32:64-S128"
target triple = "x86_64-pc-linux-gnu"

%struct.typenode = type { i16, i64, ptr, ptr, ptr, ptr, ptr, ptr, ptr, ptr, ptr }
%struct.typearg = type { ptr, ptr }

; Function Attrs: nounwind uwtable
define internal zeroext i1 @Previous_Choice(ptr noundef %0, ptr noundef %1, ptr noundef %2) #0 {
  %4 = alloca i1, align 1
  %5 = alloca ptr, align 8
  %6 = alloca ptr, align 8
  %7 = alloca ptr, align 8
  store ptr %0, ptr %5, align 8, !tbaa !69
  store ptr %1, ptr %6, align 8, !tbaa !17
  store ptr %2, ptr %7, align 8, !tbaa !70
  %8 = load ptr, ptr %5, align 8, !tbaa !69
  %9 = icmp ne ptr %8, null
  br i1 %9, label %10, label %17

10:                                               ; preds = %3
  %11 = load ptr, ptr %5, align 8, !tbaa !69
  %12 = getelementptr inbounds nuw %struct.typenode, ptr %11, i32 0, i32 0
  %13 = load i16, ptr %12, align 8, !tbaa !73
  %14 = zext i16 %13 to i32
  %15 = and i32 %14, 4
  %16 = icmp ne i32 %15, 0
  br i1 %16, label %18, label %17

17:                                               ; preds = %10, %3
  store i1 false, ptr %4, align 1
  br label %52

18:                                               ; preds = %10
  %19 = load ptr, ptr %5, align 8, !tbaa !69
  %20 = getelementptr inbounds nuw %struct.typenode, ptr %19, i32 0, i32 0
  %21 = load i16, ptr %20, align 8, !tbaa !73
  %22 = zext i16 %21 to i32
  %23 = and i32 %22, 1
  %24 = icmp ne i32 %23, 0
  br i1 %24, label %25, label %45

25:                                               ; preds = %18
  %26 = load ptr, ptr %5, align 8, !tbaa !69
  %27 = getelementptr inbounds nuw %struct.typenode, ptr %26, i32 0, i32 2
  %28 = load ptr, ptr %27, align 8, !tbaa !76
  %29 = load ptr, ptr %6, align 8, !tbaa !17
  %30 = load ptr, ptr %7, align 8, !tbaa !70
  %31 = getelementptr inbounds nuw %struct.typearg, ptr %30, i32 0, i32 0
  %32 = load ptr, ptr %31, align 8, !tbaa !77
  %33 = call zeroext i1 @Previous_Choice(ptr noundef %28, ptr noundef %29, ptr noundef %32)
  br i1 %33, label %43, label %34

34:                                               ; preds = %25
  %35 = load ptr, ptr %5, align 8, !tbaa !69
  %36 = getelementptr inbounds nuw %struct.typenode, ptr %35, i32 0, i32 3
  %37 = load ptr, ptr %36, align 8, !tbaa !79
  %38 = load ptr, ptr %6, align 8, !tbaa !17
  %39 = load ptr, ptr %7, align 8, !tbaa !70
  %40 = getelementptr inbounds nuw %struct.typearg, ptr %39, i32 0, i32 1
  %41 = load ptr, ptr %40, align 8, !tbaa !80
  %42 = call zeroext i1 @Previous_Choice(ptr noundef %37, ptr noundef %38, ptr noundef %41)
  br label %43

43:                                               ; preds = %34, %25
  %44 = phi i1 [ true, %25 ], [ %42, %34 ]
  store i1 %44, ptr %4, align 1
  br label %52

45:                                               ; preds = %18
  %46 = load ptr, ptr %5, align 8, !tbaa !69
  %47 = getelementptr inbounds nuw %struct.typenode, ptr %46, i32 0, i32 10
  %48 = load ptr, ptr %47, align 8, !tbaa !132
  %49 = load ptr, ptr %6, align 8, !tbaa !17
  %50 = load ptr, ptr %7, align 8, !tbaa !70
  %51 = call zeroext i1 %48(ptr noundef %49, ptr noundef %50)
  store i1 %51, ptr %4, align 1
  br label %52

52:                                               ; preds = %45, %43, %17
  %53 = load i1, ptr %4, align 1
  ret i1 %53
}